Certificate:
    Data:
        Version: 3 (0x2)
        Serial Number: 1 (0x1)
    Signature Algorithm: sha1WithRSAEncryption
        Issuer: C=PL, O=Quivade, OU=Quivade Silicon CA, CN=Qiovade Silicon CA
        Validity
            Not Before: Jul  9 21:15:52 2015 GMT
            Not After : Jul  8 21:15:52 2025 GMT
        Subject: C=PL, O=Quivade, OU=Quivade VPN CA, CN=Qiovade VPN CA
        Subject Public Key Info:
            Public Key Algorithm: rsaEncryption
                Public-Key: (2048 bit)
                Modulus:
                    00:d8:82:8f:95:41:35:29:26:49:30:d7:7d:df:af:
                    d2:4f:3d:bd:e8:49:68:ab:f9:25:d0:2f:89:08:7d:
                    d7:d8:38:9e:19:21:b5:59:ff:e8:68:2e:7f:08:c7:
                    4b:d0:55:7c:92:97:f9:3f:cc:1b:23:5f:5a:85:ad:
                    c6:4c:89:25:49:94:53:07:ef:62:a8:3c:56:65:f4:
                    43:84:d6:56:e4:da:4b:df:12:68:03:ba:0f:cc:ce:
                    40:83:47:c8:07:22:c1:ff:35:44:92:91:e2:3d:61:
                    79:7d:89:2a:9d:f0:98:06:4d:4e:bd:b3:66:56:8e:
                    7b:c7:39:62:0e:1c:f5:70:eb:e1:a8:a5:6d:f2:5f:
                    f9:9e:06:91:c2:f4:85:08:d2:7e:ec:d5:18:94:58:
                    c8:fe:f0:db:25:52:22:0f:ac:92:e8:c3:c5:52:81:
                    b9:48:33:21:42:a7:23:3a:b6:d5:3e:06:e8:5d:fd:
                    ad:c3:d6:71:a4:c0:a8:fe:4d:80:20:a6:ee:f1:56:
                    43:10:26:4c:f4:a0:3e:1f:2a:48:2d:fa:58:d9:9b:
                    e3:0f:5b:bb:d8:a1:4a:d9:c8:ae:48:49:39:de:c4:
                    a1:28:99:06:d3:4c:53:aa:ca:21:12:f1:d9:aa:c0:
                    d6:ed:be:84:01:c8:42:d5:10:f7:a8:ac:38:cf:11:
                    e1:35
                Exponent: 65537 (0x10001)
        X509v3 extensions:
            X509v3 Key Usage: critical
                Certificate Sign, CRL Sign
            X509v3 Basic Constraints: critical
                CA:TRUE, pathlen:0
            X509v3 Subject Key Identifier: 
                02:F1:F1:E7:DA:BA:52:B3:D4:4D:86:01:FD:BF:E6:4D:B5:45:71:A3
            X509v3 Authority Key Identifier: 
                keyid:2B:DE:4C:CA:9E:E6:C7:C6:FD:0A:0C:47:27:6C:75:F2:29:6C:DA:AF

            Authority Information Access: 
                CA Issuers - URI:http://pki.quivade.com/silicon-ca.cer

            X509v3 CRL Distribution Points: 

                Full Name:
                  URI:http://pki.quivade.com/silicon-ca.crl

            X509v3 Certificate Policies: 
                Policy: Quivade Assurance
                Policy: Quivade Service Assurance

    Signature Algorithm: sha1WithRSAEncryption
         39:1f:c4:b8:92:69:55:89:34:b5:7f:54:f9:8e:ea:19:31:bf:
         c5:d5:c0:7e:56:4f:60:08:85:61:a0:59:40:fa:b1:aa:7a:90:
         00:37:91:7b:23:41:3a:f7:12:dc:f1:17:68:34:c3:25:e3:69:
         f2:ac:b2:52:2d:ea:8f:d0:49:ba:3f:c4:29:3d:76:06:9e:a6:
         16:15:50:d2:aa:a7:f6:99:30:4f:d5:a5:03:67:37:4a:c4:ac:
         8f:81:aa:80:32:a8:6c:6f:9c:fd:e8:ea:c8:ac:be:a6:3b:72:
         21:aa:a9:c8:1a:6c:39:4f:c9:42:ef:9b:bf:6f:b9:72:a3:6b:
         e9:40:2f:b4:30:27:08:75:bd:92:09:c4:bc:58:4e:d6:0d:f8:
         5a:27:0b:04:a2:23:a0:bf:57:af:a3:84:9c:9b:95:62:ff:48:
         7e:49:5a:7c:33:5e:4c:5f:17:3f:f2:da:2f:22:b2:12:f0:ce:
         f2:b6:bf:99:16:2c:f2:60:6f:82:9c:ae:bc:2b:81:b7:6b:38:
         db:23:53:8b:b5:d5:e6:93:e9:85:d7:49:a1:2d:78:62:5b:8b:
         61:17:01:c3:48:0d:00:c9:1c:33:db:16:56:a8:aa:f1:44:e3:
         79:3e:30:fb:3b:b9:0e:c1:58:da:7a:1a:b6:b0:b4:4d:6a:0b:
         2f:4f:01:3d
-----BEGIN CERTIFICATE-----
MIIELzCCAxegAwIBAgIBATANBgkqhkiG9w0BAQUFADBZMQswCQYDVQQGEwJQTDEQ
MA4GA1UECgwHUXVpdmFkZTEbMBkGA1UECwwSUXVpdmFkZSBTaWxpY29uIENBMRsw
GQYDVQQDDBJRaW92YWRlIFNpbGljb24gQ0EwHhcNMTUwNzA5MjExNTUyWhcNMjUw
NzA4MjExNTUyWjBRMQswCQYDVQQGEwJQTDEQMA4GA1UECgwHUXVpdmFkZTEXMBUG
A1UECwwOUXVpdmFkZSBWUE4gQ0ExFzAVBgNVBAMMDlFpb3ZhZGUgVlBOIENBMIIB
IjANBgkqhkiG9w0BAQEFAAOCAQ8AMIIBCgKCAQEA2IKPlUE1KSZJMNd936/STz29
6Eloq/kl0C+JCH3X2DieGSG1Wf/oaC5/CMdL0FV8kpf5P8wbI19aha3GTIklSZRT
B+9iqDxWZfRDhNZW5NpL3xJoA7oPzM5Ag0fIByLB/zVEkpHiPWF5fYkqnfCYBk1O
vbNmVo57xzliDhz1cOvhqKVt8l/5ngaRwvSFCNJ+7NUYlFjI/vDbJVIiD6yS6MPF
UoG5SDMhQqcjOrbVPgboXf2tw9ZxpMCo/k2AIKbu8VZDECZM9KA+HypILfpY2Zvj
D1u72KFK2ciuSEk53sShKJkG00xTqsohEvHZqsDW7b6EAchC1RD3qKw4zxHhNQID
AQABo4IBCDCCAQQwDgYDVR0PAQH/BAQDAgEGMBIGA1UdEwEB/wQIMAYBAf8CAQAw
HQYDVR0OBBYEFALx8efaulKz1E2GAf2/5k21RXGjMB8GA1UdIwQYMBaAFCveTMqe
5sfG/QoMRydsdfIpbNqvMEEGCCsGAQUFBwEBBDUwMzAxBggrBgEFBQcwAoYlaHR0
cDovL3BraS5xdWl2YWRlLmNvbS9zaWxpY29uLWNhLmNlcjA2BgNVHR8ELzAtMCug
KaAnhiVodHRwOi8vcGtpLnF1aXZhZGUuY29tL3NpbGljb24tY2EuY3JsMCMGA1Ud
IAQcMBowCwYJKwYBBAEAAQcIMAsGCSsGAQQBAAEHCTANBgkqhkiG9w0BAQUFAAOC
AQEAOR/EuJJpVYk0tX9U+Y7qGTG/xdXAflZPYAiFYaBZQPqxqnqQADeReyNBOvcS
3PEXaDTDJeNp8qyyUi3qj9BJuj/EKT12Bp6mFhVQ0qqn9pkwT9WlA2c3SsSsj4Gq
gDKobG+c/ejqyKy+pjtyIaqpyBpsOU/JQu+bv2+5cqNr6UAvtDAnCHW9kgnEvFhO
1g34WicLBKIjoL9Xr6OEnJuVYv9IfklafDNeTF8XP/LaLyKyEvDO8ra/mRYs8mBv
gpyuvCuBt2s42yNTi7XV5pPphddJoS14YluLYRcBw0gNAMkcM9sWVqiq8UTjeT4w
+zu5DsFY2noatrC0TWoLL08BPQ==
-----END CERTIFICATE-----
Certificate:
    Data:
        Version: 3 (0x2)
        Serial Number: 2 (0x2)
    Signature Algorithm: sha1WithRSAEncryption
        Issuer: C=PL, O=Quivade, OU=Quivade Root CA, CN=Qiovade Root CA
        Validity
            Not Before: Jul  9 20:36:21 2015 GMT
            Not After : Dec 31 23:59:59 2030 GMT
        Subject: C=PL, O=Quivade, OU=Quivade Silicon CA, CN=Qiovade Silicon CA
        Subject Public Key Info:
            Public Key Algorithm: rsaEncryption
                Public-Key: (2048 bit)
                Modulus:
                    00:ce:a8:b3:4e:a9:45:a2:44:9d:86:2e:6e:25:76:
                    56:c1:f1:3d:0d:d6:a0:4d:9f:f0:0c:fd:a6:93:89:
                    f7:cd:fa:14:1b:9a:66:92:ad:d2:3c:cc:75:53:d1:
                    ab:f3:b7:c6:32:5e:1c:70:b8:48:92:1f:44:af:35:
                    e2:c4:6c:a9:16:c5:ca:a4:5e:cf:5c:d5:33:88:72:
                    8a:03:c4:0a:d8:6d:0b:3a:26:ba:74:1e:8b:9f:4d:
                    b3:14:df:dc:c6:df:f8:4c:ec:81:4f:1e:55:00:27:
                    cf:b7:da:ab:97:d2:90:3a:f6:3c:15:eb:a5:a1:24:
                    44:83:8c:fc:65:d2:ba:b1:93:cf:f9:e2:aa:27:dd:
                    4e:39:cf:a3:ab:79:8f:3e:73:42:73:98:cd:3a:5f:
                    9b:1f:db:dc:5b:fe:38:f4:fe:33:4e:a5:9a:1b:19:
                    f2:5d:3e:02:16:53:5f:bc:8b:50:5c:67:70:49:0d:
                    2a:4d:d2:ac:a7:54:4b:f3:67:fd:c0:26:cf:1f:4a:
                    1b:73:1a:52:b4:8c:1e:d5:2c:6d:e7:f0:14:aa:43:
                    b3:9d:c8:04:88:f0:73:8c:52:bb:04:b0:1d:61:7e:
                    85:b3:71:0c:b2:ea:1c:e4:23:5f:04:3f:fe:01:b5:
                    27:28:95:2b:e1:3e:a0:16:ba:10:9c:0f:84:f3:40:
                    10:99
                Exponent: 65537 (0x10001)
        X509v3 extensions:
            X509v3 Key Usage: critical
                Certificate Sign, CRL Sign
            X509v3 Basic Constraints: critical
                CA:TRUE
            X509v3 Subject Key Identifier: 
                2B:DE:4C:CA:9E:E6:C7:C6:FD:0A:0C:47:27:6C:75:F2:29:6C:DA:AF
            X509v3 Authority Key Identifier: 
                keyid:B8:8D:61:D5:F8:4B:19:03:8D:A9:39:E0:85:B4:B7:57:03:5F:4B:D9

            Authority Information Access: 
                CA Issuers - URI:http://pki.quivade.com/quivade-root-ca.cer

            X509v3 CRL Distribution Points: 

                Full Name:
                  URI:http://pki.quivade.com/quivade-root-ca.crl

            X509v3 Certificate Policies: 
                Policy: Quivade Assurance
                Policy: Quivade Service Assurance

    Signature Algorithm: sha1WithRSAEncryption
         9c:14:93:3a:1f:30:91:1b:aa:fa:e6:03:9a:7d:27:56:8d:ae:
         ba:24:d5:3d:42:e7:72:1f:b8:46:4f:3f:26:a6:a6:66:92:c3:
         92:2f:1c:b6:f6:11:de:a4:7b:92:c2:79:23:3f:0f:46:a4:22:
         95:d1:dc:d1:f8:05:6c:a1:d5:cc:5b:e6:e0:3e:59:73:30:f4:
         9a:e2:07:cd:f4:98:30:72:5e:4f:52:40:4d:00:28:89:ef:88:
         a5:c6:66:ad:4b:55:ac:b8:80:11:88:10:ca:a1:19:af:0b:9d:
         31:64:2c:83:da:dd:f6:8c:94:e6:c0:e4:ef:d2:3c:de:85:51:
         e4:24:a0:a8:1b:83:dd:b3:c1:cd:12:40:d8:34:d9:bf:4f:48:
         9a:bc:f1:2e:8f:ef:2c:c9:bc:3a:f1:5a:79:53:dd:d9:fb:dc:
         b4:a9:43:52:2f:78:7c:c8:a7:0b:d9:88:73:b6:ed:03:25:4f:
         96:22:9a:32:31:0e:12:14:75:da:73:c6:2a:a4:8d:b3:de:27:
         e6:aa:22:97:49:d2:27:6d:3c:66:81:59:f1:26:a5:16:04:a5:
         b2:be:7c:cc:50:ed:fc:d3:ee:0d:5f:43:b6:e1:18:c8:c3:e3:
         9a:36:06:e4:4f:7f:02:94:cc:84:ee:9e:cc:9e:f5:04:fd:46:
         12:6e:32:ab
-----BEGIN CERTIFICATE-----
MIIEOjCCAyKgAwIBAgIBAjANBgkqhkiG9w0BAQUFADBTMQswCQYDVQQGEwJQTDEQ
MA4GA1UECgwHUXVpdmFkZTEYMBYGA1UECwwPUXVpdmFkZSBSb290IENBMRgwFgYD
VQQDDA9RaW92YWRlIFJvb3QgQ0EwIBcNMTUwNzA5MjAzNjIxWhgPMjAzMDEyMzEy
MzU5NTlaMFkxCzAJBgNVBAYTAlBMMRAwDgYDVQQKDAdRdWl2YWRlMRswGQYDVQQL
DBJRdWl2YWRlIFNpbGljb24gQ0ExGzAZBgNVBAMMElFpb3ZhZGUgU2lsaWNvbiBD
QTCCASIwDQYJKoZIhvcNAQEBBQADggEPADCCAQoCggEBAM6os06pRaJEnYYubiV2
VsHxPQ3WoE2f8Az9ppOJ9836FBuaZpKt0jzMdVPRq/O3xjJeHHC4SJIfRK814sRs
qRbFyqRez1zVM4hyigPECthtCzomunQei59NsxTf3Mbf+EzsgU8eVQAnz7faq5fS
kDr2PBXrpaEkRIOM/GXSurGTz/niqifdTjnPo6t5jz5zQnOYzTpfmx/b3Fv+OPT+
M06lmhsZ8l0+AhZTX7yLUFxncEkNKk3SrKdUS/Nn/cAmzx9KG3MaUrSMHtUsbefw
FKpDs53IBIjwc4xSuwSwHWF+hbNxDLLqHOQjXwQ//gG1JyiVK+E+oBa6EJwPhPNA
EJkCAwEAAaOCAQ8wggELMA4GA1UdDwEB/wQEAwIBBjAPBgNVHRMBAf8EBTADAQH/
MB0GA1UdDgQWBBQr3kzKnubHxv0KDEcnbHXyKWzarzAfBgNVHSMEGDAWgBS4jWHV
+EsZA42pOeCFtLdXA19L2TBGBggrBgEFBQcBAQQ6MDgwNgYIKwYBBQUHMAKGKmh0
dHA6Ly9wa2kucXVpdmFkZS5jb20vcXVpdmFkZS1yb290LWNhLmNlcjA7BgNVHR8E
NDAyMDCgLqAshipodHRwOi8vcGtpLnF1aXZhZGUuY29tL3F1aXZhZGUtcm9vdC1j
YS5jcmwwIwYDVR0gBBwwGjALBgkrBgEEAQABBwgwCwYJKwYBBAEAAQcJMA0GCSqG
SIb3DQEBBQUAA4IBAQCcFJM6HzCRG6r65gOafSdWja66JNU9QudyH7hGTz8mpqZm
ksOSLxy29hHepHuSwnkjPw9GpCKV0dzR+AVsodXMW+bgPllzMPSa4gfN9Jgwcl5P
UkBNACiJ74ilxmatS1WsuIARiBDKoRmvC50xZCyD2t32jJTmwOTv0jzehVHkJKCo
G4Pds8HNEkDYNNm/T0iavPEuj+8sybw68Vp5U93Z+9y0qUNSL3h8yKcL2Yhztu0D
JU+WIpoyMQ4SFHXac8YqpI2z3ifmqiKXSdInbTxmgVnxJqUWBKWyvnzMUO380+4N
X0O24RjIw+OaNgbkT38ClMyE7p7MnvUE/UYSbjKr
-----END CERTIFICATE-----
Certificate:
    Data:
        Version: 3 (0x2)
        Serial Number: 1 (0x1)
    Signature Algorithm: sha1WithRSAEncryption
        Issuer: C=PL, O=Quivade, OU=Quivade Root CA, CN=Qiovade Root CA
        Validity
            Not Before: Jul  9 20:07:08 2015 GMT
            Not After : Dec 31 23:59:59 2030 GMT
        Subject: C=PL, O=Quivade, OU=Quivade Root CA, CN=Qiovade Root CA
        Subject Public Key Info:
            Public Key Algorithm: rsaEncryption
                Public-Key: (2048 bit)
                Modulus:
                    00:ad:d3:3a:cc:1c:08:85:35:81:c4:90:ce:58:e2:
                    da:62:71:52:38:31:fb:1b:0a:a8:f9:be:df:ac:6e:
                    5b:7a:50:c6:06:6a:85:8f:dc:75:e7:ae:cb:ac:03:
                    3e:80:d5:79:5c:99:e6:5b:83:90:2e:66:e8:05:5e:
                    46:87:10:bf:2f:b1:04:c6:7d:80:0d:d4:37:f4:c7:
                    7f:0b:ba:80:59:1a:06:88:2b:13:0b:5f:b3:a8:d0:
                    86:ac:d6:da:c6:f2:b1:cc:d6:66:64:36:80:82:54:
                    61:3d:99:e7:61:e2:a1:fc:54:0d:a1:d1:a0:a3:00:
                    97:d2:68:44:2e:e5:c9:4f:2c:f1:2d:42:ea:bd:5b:
                    61:3c:d4:2e:ed:22:26:b2:73:69:ae:be:5b:24:87:
                    ed:4d:51:69:62:f0:04:89:b0:84:30:94:af:50:0c:
                    74:a3:cb:c6:3c:a3:22:ce:96:e5:38:56:90:1c:86:
                    34:91:f7:a1:8c:47:97:6e:e8:2b:f7:ec:c4:75:dd:
                    da:53:81:d7:29:2e:df:d0:7b:a8:fc:ac:1b:27:82:
                    5a:ae:2f:a2:4a:b6:34:ab:dd:d9:83:2d:0c:4d:76:
                    83:51:a9:cc:75:2e:87:9c:27:99:fd:fc:f2:69:c6:
                    ec:1a:9e:fd:19:c1:46:11:23:73:51:53:ea:13:31:
                    f0:1f
                Exponent: 65537 (0x10001)
        X509v3 extensions:
            X509v3 Key Usage: critical
                Certificate Sign, CRL Sign
            X509v3 Basic Constraints: critical
                CA:TRUE
            X509v3 Subject Key Identifier: 
                B8:8D:61:D5:F8:4B:19:03:8D:A9:39:E0:85:B4:B7:57:03:5F:4B:D9
            X509v3 Authority Key Identifier: 
                keyid:B8:8D:61:D5:F8:4B:19:03:8D:A9:39:E0:85:B4:B7:57:03:5F:4B:D9

    Signature Algorithm: sha1WithRSAEncryption
         46:d5:4c:46:4b:f8:71:56:c4:5a:2d:af:49:8c:aa:f3:5f:eb:
         af:f8:23:20:80:e4:45:5f:81:51:ac:0f:93:16:ab:95:32:ca:
         cf:d3:ed:06:29:cc:c7:e5:5f:b1:e2:89:0b:5e:3e:9c:29:4d:
         60:7d:f3:f4:1b:bd:53:9a:5b:f3:dd:1d:a0:b7:52:c1:f6:ae:
         a5:7f:b9:09:2e:3f:55:f4:c9:23:de:af:91:78:cf:35:37:03:
         ba:9c:d6:6b:de:59:4f:3f:94:59:5d:20:c6:83:2d:3f:32:69:
         01:c7:b0:36:45:8b:02:2e:4f:e4:45:78:c7:ce:58:99:5a:f5:
         6b:9b:a5:40:21:31:69:ab:6d:f1:ef:bf:6b:6a:bf:98:d8:2f:
         cc:66:18:56:2c:02:14:e1:b2:19:92:bf:5e:d3:16:08:67:65:
         60:0c:08:a9:20:7a:71:74:3a:8a:bb:23:06:e8:10:21:59:ba:
         ae:25:ef:ad:eb:55:c8:8c:b6:3a:62:a8:f1:24:85:44:67:3e:
         5f:8f:62:67:35:28:80:8d:e0:e1:95:d5:76:08:cf:5e:f8:d5:
         2c:e5:d6:7f:56:08:24:3c:16:b3:9c:f0:0a:f9:49:d3:f9:a4:
         dc:4a:59:79:67:f9:fe:6d:7b:ad:56:f0:84:89:13:24:ed:f3:
         4d:d1:9c:d2
-----BEGIN CERTIFICATE-----
MIIDhjCCAm6gAwIBAgIBATANBgkqhkiG9w0BAQUFADBTMQswCQYDVQQGEwJQTDEQ
MA4GA1UECgwHUXVpdmFkZTEYMBYGA1UECwwPUXVpdmFkZSBSb290IENBMRgwFgYD
VQQDDA9RaW92YWRlIFJvb3QgQ0EwIBcNMTUwNzA5MjAwNzA4WhgPMjAzMDEyMzEy
MzU5NTlaMFMxCzAJBgNVBAYTAlBMMRAwDgYDVQQKDAdRdWl2YWRlMRgwFgYDVQQL
DA9RdWl2YWRlIFJvb3QgQ0ExGDAWBgNVBAMMD1Fpb3ZhZGUgUm9vdCBDQTCCASIw
DQYJKoZIhvcNAQEBBQADggEPADCCAQoCggEBAK3TOswcCIU1gcSQzlji2mJxUjgx
+xsKqPm+36xuW3pQxgZqhY/cdeeuy6wDPoDVeVyZ5luDkC5m6AVeRocQvy+xBMZ9
gA3UN/THfwu6gFkaBogrEwtfs6jQhqzW2sbysczWZmQ2gIJUYT2Z52HiofxUDaHR
oKMAl9JoRC7lyU8s8S1C6r1bYTzULu0iJrJzaa6+WySH7U1RaWLwBImwhDCUr1AM
dKPLxjyjIs6W5ThWkByGNJH3oYxHl27oK/fsxHXd2lOB1yku39B7qPysGyeCWq4v
okq2NKvd2YMtDE12g1GpzHUuh5wnmf388mnG7Bqe/RnBRhEjc1FT6hMx8B8CAwEA
AaNjMGEwDgYDVR0PAQH/BAQDAgEGMA8GA1UdEwEB/wQFMAMBAf8wHQYDVR0OBBYE
FLiNYdX4SxkDjak54IW0t1cDX0vZMB8GA1UdIwQYMBaAFLiNYdX4SxkDjak54IW0
t1cDX0vZMA0GCSqGSIb3DQEBBQUAA4IBAQBG1UxGS/hxVsRaLa9JjKrzX+uv+CMg
gORFX4FRrA+TFquVMsrP0+0GKczH5V+x4okLXj6cKU1gffP0G71Tmlvz3R2gt1LB
9q6lf7kJLj9V9Mkj3q+ReM81NwO6nNZr3llPP5RZXSDGgy0/MmkBx7A2RYsCLk/k
RXjHzliZWvVrm6VAITFpq23x779rar+Y2C/MZhhWLAIU4bIZkr9e0xYIZ2VgDAip
IHpxdDqKuyMG6BAhWbquJe+t61XIjLY6YqjxJIVEZz5fj2JnNSiAjeDhldV2CM9e
+NUs5dZ/VggkPBaznPAK+UnT+aTcSll5Z/n+bXutVvCEiRMk7fNN0ZzS
-----END CERTIFICATE-----
